target datalayout = "e-m:e-p270:32:32-p271:32:32-p272:64:64-i64:64-i128:128-f80:128-n8:16:32:64-S128"
target triple = "x86_64-pc-linux-gnu"

%struct.Ifd_Man_t_ = type { ptr, i32, i32, ptr, ptr, ptr, ptr, ptr, ptr, ptr }
%struct.Vec_Int_t_ = type { i32, i32, ptr }
%struct.Hsh_IntMan_t_ = type { i32, ptr, ptr, ptr }
%struct.Vec_Wrd_t_ = type { i32, i32, ptr }
%struct.Hsh_IntObj_t_ = type { i32, i32 }

; Function Attrs: inlinehint nounwind uwtable
define internal ptr @Vec_WrdEntryP(ptr noundef %0, i32 noundef %1) #3 {
  %3 = alloca ptr, align 8
  %4 = alloca i32, align 4
  store ptr %0, ptr %3, align 8, !tbaa !40
  store i32 %1, ptr %4, align 4, !tbaa !24
  %5 = load ptr, ptr %3, align 8, !tbaa !40
  %6 = getelementptr inbounds nuw %struct.Vec_Wrd_t_, ptr %5, i32 0, i32 2
  %7 = load ptr, ptr %6, align 8, !tbaa !45
  %8 = load i32, ptr %4, align 4, !tbaa !24
  %9 = sext i32 %8 to i64
  %10 = getelementptr inbounds i64, ptr %7, i64 %9
  ret ptr %10
}

; Function Attrs: inlinehint nounwind uwtable
define internal ptr @Hsh_IntData(ptr noundef %0, i32 noundef %1) #3 {
  %3 = alloca ptr, align 8
  %4 = alloca i32, align 4
  store ptr %0, ptr %3, align 8, !tbaa !34
  store i32 %1, ptr %4, align 4, !tbaa !24
  %5 = load ptr, ptr %3, align 8, !tbaa !34
  %6 = getelementptr inbounds nuw %struct.Hsh_IntMan_t_, ptr %5, i32 0, i32 1
  %7 = load ptr, ptr %6, align 8, !tbaa !37
  %8 = load ptr, ptr %3, align 8, !tbaa !34
  %9 = getelementptr inbounds nuw %struct.Hsh_IntMan_t_, ptr %8, i32 0, i32 0
  %10 = load i32, ptr %9, align 8, !tbaa !35
  %11 = load i32, ptr %4, align 4, !tbaa !24
  %12 = mul nsw i32 %10, %11
  %13 = call ptr @Vec_IntEntryP(ptr noundef %7, i32 noundef %12)
  ret ptr %13
}

; Function Attrs: inlinehint nounwind uwtable
define internal ptr @Hsh_IntObj(ptr noundef %0, i32 noundef %1) #3 {
  %3 = alloca ptr, align 8
  %4 = alloca i32, align 4
  store ptr %0, ptr %3, align 8, !tbaa !34
  store i32 %1, ptr %4, align 4, !tbaa !24
  %5 = load i32, ptr %4, align 4, !tbaa !24
  %6 = icmp eq i32 %5, -1
  br i1 %6, label %7, label %8

7:                                                ; preds = %2
  br label %14

8:                                                ; preds = %2
  %9 = load ptr, ptr %3, align 8, !tbaa !34
  %10 = getelementptr inbounds nuw %struct.Hsh_IntMan_t_, ptr %9, i32 0, i32 3
  %11 = load ptr, ptr %10, align 8, !tbaa !39
  %12 = load i32, ptr %4, align 4, !tbaa !24
  %13 = call ptr @Vec_WrdEntryP(ptr noundef %11, i32 noundef %12)
  br label %14

14:                                               ; preds = %8, %7
  %15 = phi ptr [ null, %7 ], [ %13, %8 ]
  ret ptr %15
}

; Function Attrs: inlinehint nounwind uwtable
define internal ptr @Vec_IntEntryP(ptr noundef %0, i32 noundef %1) #3 {
  %3 = alloca ptr, align 8
  %4 = alloca i32, align 4
  store ptr %0, ptr %3, align 8, !tbaa !28
  store i32 %1, ptr %4, align 4, !tbaa !24
  %5 = load ptr, ptr %3, align 8, !tbaa !28
  %6 = getelementptr inbounds nuw %struct.Vec_Int_t_, ptr %5, i32 0, i32 2
  %7 = load ptr, ptr %6, align 8, !tbaa !33
  %8 = load i32, ptr %4, align 4, !tbaa !24
  %9 = sext i32 %8 to i64
  %10 = getelementptr inbounds i32, ptr %7, i64 %9
  ret ptr %10
}

; Function Attrs: inlinehint nounwind uwtable
define internal i32 @Hsh_IntManHash(ptr noundef %0, i32 noundef %1, i32 noundef %2) #3 {
  %4 = alloca ptr, align 8
  %5 = alloca i32, align 4
  %6 = alloca i32, align 4
  %7 = alloca i32, align 4
  %8 = alloca i32, align 4
  %9 = alloca ptr, align 8
  store ptr %0, ptr %4, align 8, !tbaa !51
  store i32 %1, ptr %5, align 4, !tbaa !24
  store i32 %2, ptr %6, align 4, !tbaa !24
  call void @llvm.lifetime.start.p0(i64 4, ptr %7) #12
  store i32 0, ptr %7, align 4, !tbaa !24
  call void @llvm.lifetime.start.p0(i64 4, ptr %8) #12
  store i32 0, ptr %8, align 4, !tbaa !24
  call void @llvm.lifetime.start.p0(i64 8, ptr %9) #12
  %10 = load ptr, ptr %4, align 8, !tbaa !51
  store ptr %10, ptr %9, align 8, !tbaa !80
  %11 = load i32, ptr %5, align 4, !tbaa !24
  %12 = shl i32 %11, 2
  store i32 %12, ptr %5, align 4, !tbaa !24
  br label %13

13:                                               ; preds = %17, %3
  %14 = load i32, ptr %7, align 4, !tbaa !24
  %15 = load i32, ptr %5, align 4, !tbaa !24
  %16 = icmp ne i32 %14, %15
  br i1 %16, label %17, label %35

17:                                               ; preds = %13
  %18 = load ptr, ptr %9, align 8, !tbaa !80
  %19 = load i32, ptr %7, align 4, !tbaa !24
  %20 = add nsw i32 %19, 1
  store i32 %20, ptr %7, align 4, !tbaa !24
  %21 = sext i32 %19 to i64
  %22 = getelementptr inbounds i8, ptr %18, i64 %21
  %23 = load i8, ptr %22, align 1, !tbaa !53
  %24 = zext i8 %23 to i32
  %25 = load i32, ptr %8, align 4, !tbaa !24
  %26 = add i32 %25, %24
  store i32 %26, ptr %8, align 4, !tbaa !24
  %27 = load i32, ptr %8, align 4, !tbaa !24
  %28 = shl i32 %27, 10
  %29 = load i32, ptr %8, align 4, !tbaa !24
  %30 = add i32 %29, %28
  store i32 %30, ptr %8, align 4, !tbaa !24
  %31 = load i32, ptr %8, align 4, !tbaa !24
  %32 = lshr i32 %31, 6
  %33 = load i32, ptr %8, align 4, !tbaa !24
  %34 = xor i32 %33, %32
  store i32 %34, ptr %8, align 4, !tbaa !24
  br label %13, !llvm.loop !122

35:                                               ; preds = %13
  %36 = load i32, ptr %8, align 4, !tbaa !24
  %37 = shl i32 %36, 3
  %38 = load i32, ptr %8, align 4, !tbaa !24
  %39 = add i32 %38, %37
  store i32 %39, ptr %8, align 4, !tbaa !24
  %40 = load i32, ptr %8, align 4, !tbaa !24
  %41 = lshr i32 %40, 11
  %42 = load i32, ptr %8, align 4, !tbaa !24
  %43 = xor i32 %42, %41
  store i32 %43, ptr %8, align 4, !tbaa !24
  %44 = load i32, ptr %8, align 4, !tbaa !24
  %45 = shl i32 %44, 15
  %46 = load i32, ptr %8, align 4, !tbaa !24
  %47 = add i32 %46, %45
  store i32 %47, ptr %8, align 4, !tbaa !24
  %48 = load i32, ptr %8, align 4, !tbaa !24
  %49 = load i32, ptr %6, align 4, !tbaa !24
  %50 = urem i32 %48, %49
  call void @llvm.lifetime.end.p0(i64 8, ptr %9) #12
  call void @llvm.lifetime.end.p0(i64 4, ptr %8) #12
  call void @llvm.lifetime.end.p0(i64 4, ptr %7) #12
  ret i32 %50
}

; Function Attrs: inlinehint nounwind uwtable
define internal i32 @Vec_IntSize(ptr noundef %0) #3 {
  %2 = alloca ptr, align 8
  store ptr %0, ptr %2, align 8, !tbaa !28
  %3 = load ptr, ptr %2, align 8, !tbaa !28
  %4 = getelementptr inbounds nuw %struct.Vec_Int_t_, ptr %3, i32 0, i32 1
  %5 = load i32, ptr %4, align 4, !tbaa !29
  ret i32 %5
}

; Function Attrs: inlinehint nounwind uwtable
define internal ptr @Hsh_IntManLookup(ptr noundef %0, ptr noundef %1) #3 {
  %3 = alloca ptr, align 8
  %4 = alloca ptr, align 8
  %5 = alloca ptr, align 8
  %6 = alloca ptr, align 8
  %7 = alloca ptr, align 8
  %8 = alloca i32, align 4
  store ptr %0, ptr %4, align 8, !tbaa !34
  store ptr %1, ptr %5, align 8, !tbaa !51
  call void @llvm.lifetime.start.p0(i64 8, ptr %6) #12
  call void @llvm.lifetime.start.p0(i64 8, ptr %7) #12
  %9 = load ptr, ptr %4, align 8, !tbaa !34
  %10 = getelementptr inbounds nuw %struct.Hsh_IntMan_t_, ptr %9, i32 0, i32 2
  %11 = load ptr, ptr %10, align 8, !tbaa !38
  %12 = load ptr, ptr %5, align 8, !tbaa !51
  %13 = load ptr, ptr %4, align 8, !tbaa !34
  %14 = getelementptr inbounds nuw %struct.Hsh_IntMan_t_, ptr %13, i32 0, i32 0
  %15 = load i32, ptr %14, align 8, !tbaa !35
  %16 = load ptr, ptr %4, align 8, !tbaa !34
  %17 = getelementptr inbounds nuw %struct.Hsh_IntMan_t_, ptr %16, i32 0, i32 2
  %18 = load ptr, ptr %17, align 8, !tbaa !38
  %19 = call i32 @Vec_IntSize(ptr noundef %18)
  %20 = call i32 @Hsh_IntManHash(ptr noundef %12, i32 noundef %15, i32 noundef %19)
  %21 = call ptr @Vec_IntEntryP(ptr noundef %11, i32 noundef %20)
  store ptr %21, ptr %7, align 8, !tbaa !51
  br label %22

22:                                               ; preds = %45, %2
  %23 = load ptr, ptr %4, align 8, !tbaa !34
  %24 = load ptr, ptr %7, align 8, !tbaa !51
  %25 = load i32, ptr %24, align 4, !tbaa !24
  %26 = call ptr @Hsh_IntObj(ptr noundef %23, i32 noundef %25)
  store ptr %26, ptr %6, align 8, !tbaa !72
  %27 = icmp ne ptr %26, null
  br i1 %27, label %28, label %48

28:                                               ; preds = %22
  %29 = load ptr, ptr %5, align 8, !tbaa !51
  %30 = load ptr, ptr %4, align 8, !tbaa !34
  %31 = load ptr, ptr %6, align 8, !tbaa !72
  %32 = getelementptr inbounds nuw %struct.Hsh_IntObj_t_, ptr %31, i32 0, i32 0
  %33 = load i32, ptr %32, align 4, !tbaa !74
  %34 = call ptr @Hsh_IntData(ptr noundef %30, i32 noundef %33)
  %35 = load ptr, ptr %4, align 8, !tbaa !34
  %36 = getelementptr inbounds nuw %struct.Hsh_IntMan_t_, ptr %35, i32 0, i32 0
  %37 = load i32, ptr %36, align 8, !tbaa !35
  %38 = sext i32 %37 to i64
  %39 = mul i64 4, %38
  %40 = call i32 @memcmp(ptr noundef %29, ptr noundef %34, i64 noundef %39) #15
  %41 = icmp ne i32 %40, 0
  br i1 %41, label %44, label %42

42:                                               ; preds = %28
  %43 = load ptr, ptr %7, align 8, !tbaa !51
  store ptr %43, ptr %3, align 8
  store i32 1, ptr %8, align 4
  br label %50

44:                                               ; preds = %28
  br label %45

45:                                               ; preds = %44
  %46 = load ptr, ptr %6, align 8, !tbaa !72
  %47 = getelementptr inbounds nuw %struct.Hsh_IntObj_t_, ptr %46, i32 0, i32 1
  store ptr %47, ptr %7, align 8, !tbaa !51
  br label %22, !llvm.loop !76

48:                                               ; preds = %22
  %49 = load ptr, ptr %7, align 8, !tbaa !51
  store ptr %49, ptr %3, align 8
  store i32 1, ptr %8, align 4
  br label %50

50:                                               ; preds = %48, %42
  call void @llvm.lifetime.end.p0(i64 8, ptr %7) #12
  call void @llvm.lifetime.end.p0(i64 8, ptr %6) #12
  %51 = load ptr, ptr %3, align 8
  ret ptr %51
}

; Function Attrs: nounwind uwtable
define i32 @Ifd_ManHashLookup(ptr noundef %0, i32 noundef %1, i32 noundef %2, i32 noundef %3, i32 noundef %4) #0 {
  %6 = alloca ptr, align 8
  %7 = alloca i32, align 4
  %8 = alloca i32, align 4
  %9 = alloca i32, align 4
  %10 = alloca i32, align 4
  %11 = alloca [4 x i32], align 16
  store ptr %0, ptr %6, align 8, !tbaa !3
  store i32 %1, ptr %7, align 4, !tbaa !24
  store i32 %2, ptr %8, align 4, !tbaa !24
  store i32 %3, ptr %9, align 4, !tbaa !24
  store i32 %4, ptr %10, align 4, !tbaa !24
  call void @llvm.lifetime.start.p0(i64 16, ptr %11) #12
  %12 = load i32, ptr %7, align 4, !tbaa !24
  %13 = getelementptr inbounds [4 x i32], ptr %11, i64 0, i64 0
  store i32 %12, ptr %13, align 16, !tbaa !24
  %14 = load i32, ptr %8, align 4, !tbaa !24
  %15 = getelementptr inbounds [4 x i32], ptr %11, i64 0, i64 1
  store i32 %14, ptr %15, align 4, !tbaa !24
  %16 = load i32, ptr %9, align 4, !tbaa !24
  %17 = getelementptr inbounds [4 x i32], ptr %11, i64 0, i64 2
  store i32 %16, ptr %17, align 8, !tbaa !24
  %18 = load i32, ptr %10, align 4, !tbaa !24
  %19 = getelementptr inbounds [4 x i32], ptr %11, i64 0, i64 3
  store i32 %18, ptr %19, align 4, !tbaa !24
  %20 = load ptr, ptr %6, align 8, !tbaa !3
  %21 = getelementptr inbounds nuw %struct.Ifd_Man_t_, ptr %20, i32 0, i32 5
  %22 = load ptr, ptr %21, align 8, !tbaa !19
  %23 = getelementptr inbounds [4 x i32], ptr %11, i64 0, i64 0
  %24 = call ptr @Hsh_IntManLookup(ptr noundef %22, ptr noundef %23)
  %25 = load i32, ptr %24, align 4, !tbaa !24
  call void @llvm.lifetime.end.p0(i64 16, ptr %11) #12
  ret i32 %25
}