; Function Attrs: nofree nounwind memory(read, inaccessiblemem: none) uwtable
define i32 @Ifd_ManHashLookup(ptr noundef readonly captures(none) %0, i32 noundef %1, i32 noundef %2, i32 noundef %3, i32 noundef %4) local_unnamed_addr #12 {
  %6 = alloca [4 x i32], align 16
  call void @llvm.lifetime.start.p0(i64 16, ptr nonnull %6) #28
  store i32 %1, ptr %6, align 16, !tbaa !37
  %7 = getelementptr inbounds nuw i8, ptr %6, i64 4
  store i32 %2, ptr %7, align 4, !tbaa !37
  %8 = getelementptr inbounds nuw i8, ptr %6, i64 8
  store i32 %3, ptr %8, align 8, !tbaa !37
  %9 = getelementptr inbounds nuw i8, ptr %6, i64 12
  store i32 %4, ptr %9, align 4, !tbaa !37
  %10 = getelementptr inbounds nuw i8, ptr %0, i64 32
  %11 = load ptr, ptr %10, align 8, !tbaa !35
  %12 = getelementptr inbounds nuw i8, ptr %11, i64 16
  %13 = load ptr, ptr %12, align 8, !tbaa !28
  %14 = load i32, ptr %11, align 8, !tbaa !25
  %15 = getelementptr i8, ptr %13, i64 4
  %.val.i = load i32, ptr %15, align 4, !tbaa !18
  %16 = shl i32 %14, 2
  %.not19.i.i = icmp eq i32 %16, 0
  br i1 %.not19.i.i, label %Hsh_IntManHash.exit.i, label %.lr.ph.preheader.i.i

.lr.ph.preheader.i.i:                             ; preds = %5
  %17 = zext i32 %16 to i64
  br label %.lr.ph.i.i

.lr.ph.i.i:                                       ; preds = %.lr.ph.i.i, %.lr.ph.preheader.i.i
  %indvars.iv.i.i = phi i64 [ 0, %.lr.ph.preheader.i.i ], [ %indvars.iv.next.i.i, %.lr.ph.i.i ]
  %.021.i.i = phi i32 [ 0, %.lr.ph.preheader.i.i ], [ %24, %.lr.ph.i.i ]
  %indvars.iv.next.i.i = add nuw nsw i64 %indvars.iv.i.i, 1
  %18 = getelementptr inbounds nuw i8, ptr %6, i64 %indvars.iv.i.i
  %19 = load i8, ptr %18, align 1, !tbaa !44
  %20 = zext i8 %19 to i32
  %21 = add i32 %.021.i.i, %20
  %22 = mul i32 %21, 1025
  %23 = lshr i32 %22, 6
  %24 = xor i32 %23, %22
  %.not.i.i = icmp eq i64 %indvars.iv.next.i.i, %17
  br i1 %.not.i.i, label %._crit_edge.loopexit.i.i, label %.lr.ph.i.i, !llvm.loop !61

._crit_edge.loopexit.i.i:                         ; preds = %.lr.ph.i.i
  %25 = mul i32 %24, 9
  br label %Hsh_IntManHash.exit.i

Hsh_IntManHash.exit.i:                            ; preds = %._crit_edge.loopexit.i.i, %5
  %.0.lcssa.i.i = phi i32 [ 0, %5 ], [ %25, %._crit_edge.loopexit.i.i ]
  %26 = lshr i32 %.0.lcssa.i.i, 11
  %27 = xor i32 %26, %.0.lcssa.i.i
  %28 = mul i32 %27, 32769
  %29 = urem i32 %28, %.val.i
  %30 = getelementptr i8, ptr %13, i64 8
  %.val17.i = load ptr, ptr %30, align 8, !tbaa !22
  %31 = sext i32 %29 to i64
  %32 = getelementptr inbounds i32, ptr %.val17.i, i64 %31
  %33 = load i32, ptr %32, align 4, !tbaa !37
  %34 = icmp eq i32 %33, -1
  br i1 %34, label %Hsh_IntManLookup.exit, label %Hsh_IntObj.exit.lr.ph.i

Hsh_IntObj.exit.lr.ph.i:                          ; preds = %Hsh_IntManHash.exit.i
  %35 = getelementptr inbounds nuw i8, ptr %11, i64 24
  %36 = load ptr, ptr %35, align 8, !tbaa !34
  %37 = getelementptr i8, ptr %36, i64 8
  %.val.i.i = load ptr, ptr %37, align 8, !tbaa !33
  %.not.i = icmp eq ptr %.val.i.i, null
  %38 = sext i32 %14 to i64
  %39 = shl nsw i64 %38, 2
  br i1 %.not.i, label %Hsh_IntManLookup.exit, label %Hsh_IntObj.exit.lr.ph.split.i

Hsh_IntObj.exit.lr.ph.split.i:                    ; preds = %Hsh_IntObj.exit.lr.ph.i
  %40 = getelementptr i8, ptr %11, i64 8
  %.val19.i = load ptr, ptr %40, align 8, !tbaa !27
  %41 = getelementptr i8, ptr %.val19.i, i64 8
  %.val19.val.i = load ptr, ptr %41, align 8, !tbaa !22
  %42 = sext i32 %33 to i64
  %43 = getelementptr inbounds i64, ptr %.val.i.i, i64 %42
  %44 = load i32, ptr %43, align 4, !tbaa !62
  %45 = mul nsw i32 %44, %14
  %46 = sext i32 %45 to i64
  %47 = getelementptr inbounds i32, ptr %.val19.val.i, i64 %46
  %bcmp25.i = call i32 @bcmp(ptr nonnull readonly %6, ptr %47, i64 %39)
  %.not1626.i = icmp eq i32 %bcmp25.i, 0
  br i1 %.not1626.i, label %Hsh_IntManLookup.exit, label %.lr.ph.i.preheader

.lr.ph.i.preheader:                               ; preds = %Hsh_IntObj.exit.lr.ph.split.i
  %invariant.gep = getelementptr i8, ptr %.val.i.i, i64 4
  br label %.lr.ph.i

.lr.ph.i:                                         ; preds = %.lr.ph.i.preheader, %Hsh_IntObj.exit.i
  %48 = phi i64 [ %51, %Hsh_IntObj.exit.i ], [ %42, %.lr.ph.i.preheader ]
  %gep = getelementptr i64, ptr %invariant.gep, i64 %48
  %49 = load i32, ptr %gep, align 4, !tbaa !37
  %50 = icmp eq i32 %49, -1
  br i1 %50, label %Hsh_IntManLookup.exit, label %Hsh_IntObj.exit.i, !llvm.loop !64

Hsh_IntObj.exit.i:                                ; preds = %.lr.ph.i
  %51 = sext i32 %49 to i64
  %52 = getelementptr inbounds i64, ptr %.val.i.i, i64 %51
  %53 = load i32, ptr %52, align 4, !tbaa !62
  %54 = mul nsw i32 %53, %14
  %55 = sext i32 %54 to i64
  %56 = getelementptr inbounds i32, ptr %.val19.val.i, i64 %55
  %bcmp.i = call i32 @bcmp(ptr nonnull readonly %6, ptr %56, i64 %39)
  %.not16.i = icmp eq i32 %bcmp.i, 0
  br i1 %.not16.i, label %Hsh_IntManLookup.exit, label %.lr.ph.i, !llvm.loop !64

Hsh_IntManLookup.exit:                            ; preds = %.lr.ph.i, %Hsh_IntObj.exit.i, %Hsh_IntManHash.exit.i, %Hsh_IntObj.exit.lr.ph.i, %Hsh_IntObj.exit.lr.ph.split.i
  %57 = phi i32 [ -1, %Hsh_IntManHash.exit.i ], [ %33, %Hsh_IntObj.exit.lr.ph.split.i ], [ %33, %Hsh_IntObj.exit.lr.ph.i ], [ -1, %.lr.ph.i ], [ %49, %Hsh_IntObj.exit.i ]
  call void @llvm.lifetime.end.p0(i64 16, ptr nonnull %6) #28
  ret i32 %57
}